; Function Attrs: mustprogress uwtable
define hidden void @_ZNK15static_features19display_family_dataERSoPKcRK7svectorIjjE(ptr nocapture noundef nonnull readonly align 8 dereferenceable(792) %this, ptr noundef nonnull align 8 dereferenceable(8) %out, ptr noundef %prefix, ptr nocapture noundef nonnull readonly align 8 dereferenceable(8) %data) local_unnamed_addr #3 align 2 {
entry:
  %m_label_sym.i = getelementptr inbounds i8, ptr %this, i64 760
  %m_pattern_sym.i = getelementptr inbounds i8, ptr %this, i64 768
  %m_expr_list_sym.i = getelementptr inbounds i8, ptr %this, i64 776
  br label %for.cond

for.cond:                                         ; preds = %for.inc, %entry
  %indvars.iv = phi i64 [ %indvars.iv.next, %for.inc ], [ 0, %entry ]
  %0 = load ptr, ptr %data, align 8
  %cmp.i = icmp eq ptr %0, null
  br i1 %cmp.i, label %_ZNK6vectorIjLb0EjE4sizeEv.exit, label %if.end.i

if.end.i:                                         ; preds = %for.cond
  %arrayidx.i = getelementptr inbounds i8, ptr %0, i64 -4
  %1 = load i32, ptr %arrayidx.i, align 4
  br label %_ZNK6vectorIjLb0EjE4sizeEv.exit

_ZNK6vectorIjLb0EjE4sizeEv.exit:                  ; preds = %for.cond, %if.end.i
  %retval.0.i = phi i32 [ %1, %if.end.i ], [ 0, %for.cond ]
  %2 = zext i32 %retval.0.i to i64
  %cmp = icmp ult i64 %indvars.iv, %2
  br i1 %cmp, label %for.body, label %for.end

for.body:                                         ; preds = %_ZNK6vectorIjLb0EjE4sizeEv.exit
  %3 = trunc i64 %indvars.iv to i32
  %cmp.i.i = icmp sgt i32 %3, -1
  br i1 %cmp.i.i, label %land.lhs.true.i.i, label %_ZNK11ast_manager15get_family_nameEi.exit

land.lhs.true.i.i:                                ; preds = %for.body
  %4 = load ptr, ptr %this, align 8
  %m_names.i.i = getelementptr inbounds i8, ptr %4, i64 608
  %5 = load ptr, ptr %m_names.i.i, align 8
  %cmp.i.i.i = icmp eq ptr %5, null
  br i1 %cmp.i.i.i, label %_ZNK6vectorI6symbolLb0EjE4sizeEv.exit.i.i, label %if.end.i.i.i

if.end.i.i.i:                                     ; preds = %land.lhs.true.i.i
  %arrayidx.i.i.i = getelementptr inbounds i8, ptr %5, i64 -4
  %6 = load i32, ptr %arrayidx.i.i.i, align 4
  br label %_ZNK6vectorI6symbolLb0EjE4sizeEv.exit.i.i

_ZNK6vectorI6symbolLb0EjE4sizeEv.exit.i.i:        ; preds = %if.end.i.i.i, %land.lhs.true.i.i
  %retval.0.i.i.i = phi i32 [ %6, %if.end.i.i.i ], [ 0, %land.lhs.true.i.i ]
  %cmp2.i.i = icmp sgt i32 %retval.0.i.i.i, %3
  %arrayidx.i3.i.i = getelementptr inbounds %class.symbol, ptr %5, i64 %indvars.iv
  %spec.select = select i1 %cmp2.i.i, ptr %arrayidx.i3.i.i, ptr @_ZN6symbol4nullE
  br label %_ZNK11ast_manager15get_family_nameEi.exit

_ZNK11ast_manager15get_family_nameEi.exit:        ; preds = %_ZNK6vectorI6symbolLb0EjE4sizeEv.exit.i.i, %for.body
  %cond-lvalue.i.i = phi ptr [ @_ZN6symbol4nullE, %for.body ], [ %spec.select, %_ZNK6vectorI6symbolLb0EjE4sizeEv.exit.i.i ]
  %7 = load ptr, ptr %cond-lvalue.i.i, align 8
  %8 = load ptr, ptr %m_label_sym.i, align 8
  %cmp.i.i6 = icmp eq ptr %7, %8
  %9 = load ptr, ptr %m_pattern_sym.i, align 8
  %cmp.i3.i = icmp eq ptr %7, %9
  %or.cond.i = select i1 %cmp.i.i6, i1 true, i1 %cmp.i3.i
  %10 = load ptr, ptr %m_expr_list_sym.i, align 8
  %cmp.i4.i = icmp eq ptr %7, %10
  %or.cond = select i1 %or.cond.i, i1 true, i1 %cmp.i4.i
  br i1 %or.cond, label %for.inc, label %if.then

if.then:                                          ; preds = %_ZNK11ast_manager15get_family_nameEi.exit
  %call4 = tail call noundef nonnull align 8 dereferenceable(8) ptr @_ZStlsISt11char_traitsIcEERSt13basic_ostreamIcT_ES5_PKc(ptr noundef nonnull align 8 dereferenceable(8) %out, ptr noundef %prefix)
  %call5 = tail call noundef nonnull align 8 dereferenceable(8) ptr @_ZStlsISt11char_traitsIcEERSt13basic_ostreamIcT_ES5_PKc(ptr noundef nonnull align 8 dereferenceable(8) %call4, ptr noundef nonnull @.str.6)
  %agg.tmp.sroa.0.0.copyload = load ptr, ptr %cond-lvalue.i.i, align 8
  %11 = ptrtoint ptr %agg.tmp.sroa.0.0.copyload to i64
  %and.i = and i64 %11, 7
  %cmp.i7 = icmp eq i64 %and.i, 0
  br i1 %cmp.i7, label %if.then.i, label %if.else5.i

if.then.i:                                        ; preds = %if.then
  %tobool.not.i = icmp eq ptr %agg.tmp.sroa.0.0.copyload, null
  br i1 %tobool.not.i, label %if.else.i, label %if.then2.i

if.then2.i:                                       ; preds = %if.then.i
  %call.i = tail call noundef nonnull align 8 dereferenceable(8) ptr @_ZStlsISt11char_traitsIcEERSt13basic_ostreamIcT_ES5_PKc(ptr noundef nonnull align 8 dereferenceable(8) %call5, ptr noundef nonnull %agg.tmp.sroa.0.0.copyload)
  br label %_ZlsRSo6symbol.exit

if.else.i:                                        ; preds = %if.then.i
  %call4.i = tail call noundef nonnull align 8 dereferenceable(8) ptr @_ZStlsISt11char_traitsIcEERSt13basic_ostreamIcT_ES5_PKc(ptr noundef nonnull align 8 dereferenceable(8) %call5, ptr noundef nonnull @.str.85)
  br label %_ZlsRSo6symbol.exit

if.else5.i:                                       ; preds = %if.then
  %call6.i = tail call noundef nonnull align 8 dereferenceable(8) ptr @_ZStlsISt11char_traitsIcEERSt13basic_ostreamIcT_ES5_PKc(ptr noundef nonnull align 8 dereferenceable(8) %call5, ptr noundef nonnull @.str.86)
  %shr.i = lshr i64 %11, 3
  %conv.i = trunc i64 %shr.i to i32
  %call8.i = tail call noundef nonnull align 8 dereferenceable(8) ptr @_ZNSolsEi(ptr noundef nonnull align 8 dereferenceable(8) %call6.i, i32 noundef %conv.i)
  br label %_ZlsRSo6symbol.exit

_ZlsRSo6symbol.exit:                              ; preds = %if.then2.i, %if.else.i, %if.else5.i
  %call7 = tail call noundef nonnull align 8 dereferenceable(8) ptr @_ZStlsISt11char_traitsIcEERSt13basic_ostreamIcT_ES5_PKc(ptr noundef nonnull align 8 dereferenceable(8) %call5, ptr noundef nonnull @.str.7)
  %12 = load ptr, ptr %data, align 8
  %arrayidx.i8 = getelementptr inbounds i32, ptr %12, i64 %indvars.iv
  %13 = load i32, ptr %arrayidx.i8, align 4
  %call9 = tail call noundef nonnull align 8 dereferenceable(8) ptr @_ZNSolsEj(ptr noundef nonnull align 8 dereferenceable(8) %call7, i32 noundef %13)
  %call10 = tail call noundef nonnull align 8 dereferenceable(8) ptr @_ZStlsISt11char_traitsIcEERSt13basic_ostreamIcT_ES5_PKc(ptr noundef nonnull align 8 dereferenceable(8) %call9, ptr noundef nonnull @.str.8)
  br label %for.inc

for.inc:                                          ; preds = %_ZNK11ast_manager15get_family_nameEi.exit, %_ZlsRSo6symbol.exit
  %indvars.iv.next = add nuw nsw i64 %indvars.iv, 1
  br label %for.cond, !llvm.loop !24

for.end:                                          ; preds = %_ZNK6vectorIjLb0EjE4sizeEv.exit
  ret void
}